; ModuleID = '4/1700.c'
source_filename = "4/1700.c"
target datalayout = "e-m:e-p270:32:32-p271:32:32-p272:64:64-i64:64-f80:128-n8:16:32:64-S128"
target triple = "x86_64-pc-linux-gnu"

@.str = private unnamed_addr constant [5 x i8] c"%d%d\00", align 1
@.str.1 = private unnamed_addr constant [3 x i8] c"%d\00", align 1
@.str.2 = private unnamed_addr constant [4 x i8] c"%d\0A\00", align 1

; Function Attrs: noinline nounwind uwtable
define dso_local void @main() #0 {
  %1 = alloca i32, align 4
  %2 = alloca i32, align 4
  %3 = alloca i32, align 4
  %4 = alloca i32, align 4
  %5 = alloca i32, align 4
  %6 = alloca [100 x [100 x i32]], align 16
  store i32 0, i32* %3, align 4
  store i32 0, i32* %4, align 4
  store i32 0, i32* %5, align 4
  %7 = bitcast [100 x [100 x i32]]* %6 to i8*
  call void @llvm.memset.p0i8.i64(i8* align 16 %7, i8 0, i64 40000, i1 false)
  %8 = call i32 (i8*, ...) @__isoc99_scanf(i8* getelementptr inbounds ([5 x i8], [5 x i8]* @.str, i64 0, i64 0), i32* %1, i32* %2)
  store i32 0, i32* %3, align 4
  br label %9

9:                                                ; preds = %30, %0
  %10 = load i32, i32* %3, align 4
  %11 = load i32, i32* %1, align 4
  %12 = icmp slt i32 %10, %11
  br i1 %12, label %13, label %33

13:                                               ; preds = %9
  store i32 0, i32* %4, align 4
  br label %14

14:                                               ; preds = %26, %13
  %15 = load i32, i32* %4, align 4
  %16 = load i32, i32* %2, align 4
  %17 = icmp slt i32 %15, %16
  br i1 %17, label %18, label %29

18:                                               ; preds = %14
  %19 = load i32, i32* %3, align 4
  %20 = sext i32 %19 to i64
  %21 = getelementptr inbounds [100 x [100 x i32]], [100 x [100 x i32]]* %6, i64 0, i64 %20
  %22 = load i32, i32* %4, align 4
  %23 = sext i32 %22 to i64
  %24 = getelementptr inbounds [100 x i32], [100 x i32]* %21, i64 0, i64 %23
  %25 = call i32 (i8*, ...) @__isoc99_scanf(i8* getelementptr inbounds ([3 x i8], [3 x i8]* @.str.1, i64 0, i64 0), i32* %24)
  br label %26

26:                                               ; preds = %18
  %27 = load i32, i32* %4, align 4
  %28 = add nsw i32 %27, 1
  store i32 %28, i32* %4, align 4
  br label %14

29:                                               ; preds = %14
  br label %30

30:                                               ; preds = %29
  %31 = load i32, i32* %3, align 4
  %32 = add nsw i32 %31, 1
  store i32 %32, i32* %3, align 4
  br label %9

33:                                               ; preds = %9
  store i32 0, i32* %5, align 4
  br label %34

34:                                               ; preds = %69, %33
  %35 = load i32, i32* %5, align 4
  %36 = load i32, i32* %2, align 4
  %37 = icmp slt i32 %35, %36
  br i1 %37, label %38, label %72

38:                                               ; preds = %34
  store i32 0, i32* %3, align 4
  %39 = load i32, i32* %5, align 4
  store i32 %39, i32* %4, align 4
  br label %40

40:                                               ; preds = %63, %38
  %41 = load i32, i32* %4, align 4
  %42 = icmp sge i32 %41, 0
  br i1 %42, label %43, label %68

43:                                               ; preds = %40
  %44 = load i32, i32* %3, align 4
  %45 = sext i32 %44 to i64
  %46 = getelementptr inbounds [100 x [100 x i32]], [100 x [100 x i32]]* %6, i64 0, i64 %45
  %47 = load i32, i32* %4, align 4
  %48 = sext i32 %47 to i64
  %49 = getelementptr inbounds [100 x i32], [100 x i32]* %46, i64 0, i64 %48
  %50 = load i32, i32* %49, align 4
  %51 = icmp eq i32 %50, 0
  br i1 %51, label %52, label %53

52:                                               ; preds = %43
  br label %68

53:                                               ; preds = %43
  %54 = load i32, i32* %3, align 4
  %55 = sext i32 %54 to i64
  %56 = getelementptr inbounds [100 x [100 x i32]], [100 x [100 x i32]]* %6, i64 0, i64 %55
  %57 = load i32, i32* %4, align 4
  %58 = sext i32 %57 to i64
  %59 = getelementptr inbounds [100 x i32], [100 x i32]* %56, i64 0, i64 %58
  %60 = load i32, i32* %59, align 4
  %61 = call i32 (i8*, ...) @printf(i8* getelementptr inbounds ([4 x i8], [4 x i8]* @.str.2, i64 0, i64 0), i32 %60)
  br label %62

62:                                               ; preds = %53
  br label %63

63:                                               ; preds = %62
  %64 = load i32, i32* %3, align 4
  %65 = add nsw i32 %64, 1
  store i32 %65, i32* %3, align 4
  %66 = load i32, i32* %4, align 4
  %67 = add nsw i32 %66, -1
  store i32 %67, i32* %4, align 4
  br label %40

68:                                               ; preds = %52, %40
  br label %69

69:                                               ; preds = %68
  %70 = load i32, i32* %5, align 4
  %71 = add nsw i32 %70, 1
  store i32 %71, i32* %5, align 4
  br label %34

72:                                               ; preds = %34
  store i32 0, i32* %3, align 4
  store i32 0, i32* %5, align 4
  store i32 0, i32* %4, align 4
  store i32 1, i32* %5, align 4
  br label %73

73:                                               ; preds = %105, %72
  %74 = load i32, i32* %5, align 4
  %75 = load i32, i32* %1, align 4
  %76 = icmp slt i32 %74, %75
  br i1 %76, label %77, label %108

77:                                               ; preds = %73
  %78 = load i32, i32* %5, align 4
  store i32 %78, i32* %3, align 4
  %79 = load i32, i32* %2, align 4
  %80 = sub nsw i32 %79, 1
  store i32 %80, i32* %4, align 4
  br label %81

81:                                               ; preds = %99, %77
  %82 = load i32, i32* %3, align 4
  %83 = load i32, i32* %1, align 4
  %84 = icmp slt i32 %82, %83
  br i1 %84, label %85, label %88

85:                                               ; preds = %81
  %86 = load i32, i32* %4, align 4
  %87 = icmp sge i32 %86, 0
  br label %88

88:                                               ; preds = %85, %81
  %89 = phi i1 [ false, %81 ], [ %87, %85 ]
  br i1 %89, label %90, label %104

90:                                               ; preds = %88
  %91 = load i32, i32* %3, align 4
  %92 = sext i32 %91 to i64
  %93 = getelementptr inbounds [100 x [100 x i32]], [100 x [100 x i32]]* %6, i64 0, i64 %92
  %94 = load i32, i32* %4, align 4
  %95 = sext i32 %94 to i64
  %96 = getelementptr inbounds [100 x i32], [100 x i32]* %93, i64 0, i64 %95
  %97 = load i32, i32* %96, align 4
  %98 = call i32 (i8*, ...) @printf(i8* getelementptr inbounds ([4 x i8], [4 x i8]* @.str.2, i64 0, i64 0), i32 %97)
  br label %99

99:                                               ; preds = %90
  %100 = load i32, i32* %3, align 4
  %101 = add nsw i32 %100, 1
  store i32 %101, i32* %3, align 4
  %102 = load i32, i32* %4, align 4
  %103 = add nsw i32 %102, -1
  store i32 %103, i32* %4, align 4
  br label %81

104:                                              ; preds = %88
  br label %105

105:                                              ; preds = %104
  %106 = load i32, i32* %5, align 4
  %107 = add nsw i32 %106, 1
  store i32 %107, i32* %5, align 4
  br label %73

108:                                              ; preds = %73
  ret void
}

; Function Attrs: argmemonly nounwind willreturn
declare void @llvm.memset.p0i8.i64(i8* nocapture writeonly, i8, i64, i1 immarg) #1

declare dso_local i32 @__isoc99_scanf(i8*, ...) #2

declare dso_local i32 @printf(i8*, ...) #2


!llvm.module.flags = !{!0}
!llvm.ident = !{!1}

!0 = !{i32 1, !"wchar_size", i32 4}
!1 = !{!"clang version 10.0.0-4ubuntu1 "}
