; ModuleID = 'source-C-CXX/3/1700.c'
source_filename = "source-C-CXX/3/1700.c"
target datalayout = "e-m:e-p270:32:32-p271:32:32-p272:64:64-i64:64-f80:128-n8:16:32:64-S128"
target triple = "x86_64-pc-linux-gnu"

@.str = private unnamed_addr constant [5 x i8] c"%d%d\00", align 1
@.str.1 = private unnamed_addr constant [3 x i8] c"%d\00", align 1
@.str.2 = private unnamed_addr constant [4 x i8] c"%d\0A\00", align 1

; Function Attrs: nofree nounwind sspstrong uwtable
define dso_local void @main() local_unnamed_addr #0 {
  %1 = alloca i32, align 4
  %2 = alloca i32, align 4
  %3 = alloca [100 x [100 x i32]], align 16
  %4 = bitcast i32* %1 to i8*
  call void @llvm.lifetime.start.p0i8(i64 4, i8* nonnull %4) #4
  %5 = bitcast i32* %2 to i8*
  call void @llvm.lifetime.start.p0i8(i64 4, i8* nonnull %5) #4
  %6 = bitcast [100 x [100 x i32]]* %3 to i8*
  call void @llvm.lifetime.start.p0i8(i64 40000, i8* nonnull %6) #4
  call void @llvm.memset.p0i8.i64(i8* noundef nonnull align 16 dereferenceable(40000) %6, i8 0, i64 40000, i1 false)
  %7 = call i32 (i8*, ...) @__isoc99_scanf(i8* getelementptr inbounds ([5 x i8], [5 x i8]* @.str, i64 0, i64 0), i32* nonnull %1, i32* nonnull %2)
  %8 = load i32, i32* %1, align 4, !tbaa !5
  %9 = icmp sgt i32 %8, 0
  %10 = load i32, i32* %2, align 4, !tbaa !5
  br i1 %9, label %11, label %18

11:                                               ; preds = %0
  %12 = icmp sgt i32 %10, 0
  br i1 %12, label %13, label %43

13:                                               ; preds = %11, %32
  %14 = phi i32 [ %33, %32 ], [ %8, %11 ]
  %15 = phi i32 [ %34, %32 ], [ %10, %11 ]
  %16 = phi i64 [ %35, %32 ], [ 0, %11 ]
  %17 = icmp sgt i32 %15, 0
  br i1 %17, label %22, label %32

18:                                               ; preds = %32, %0
  %19 = phi i32 [ %8, %0 ], [ %33, %32 ]
  %20 = phi i32 [ %10, %0 ], [ %34, %32 ]
  %21 = icmp sgt i32 %20, 0
  br i1 %21, label %38, label %43

22:                                               ; preds = %13, %22
  %23 = phi i64 [ %26, %22 ], [ 0, %13 ]
  %24 = getelementptr inbounds [100 x [100 x i32]], [100 x [100 x i32]]* %3, i64 0, i64 %16, i64 %23
  %25 = call i32 (i8*, ...) @__isoc99_scanf(i8* getelementptr inbounds ([3 x i8], [3 x i8]* @.str.1, i64 0, i64 0), i32* nonnull %24)
  %26 = add nuw nsw i64 %23, 1
  %27 = load i32, i32* %2, align 4, !tbaa !5
  %28 = sext i32 %27 to i64
  %29 = icmp slt i64 %26, %28
  br i1 %29, label %22, label %30, !llvm.loop !9

30:                                               ; preds = %22
  %31 = load i32, i32* %1, align 4, !tbaa !5
  br label %32

32:                                               ; preds = %30, %13
  %33 = phi i32 [ %31, %30 ], [ %14, %13 ]
  %34 = phi i32 [ %27, %30 ], [ %15, %13 ]
  %35 = add nuw nsw i64 %16, 1
  %36 = sext i32 %33 to i64
  %37 = icmp slt i64 %35, %36
  br i1 %37, label %13, label %18, !llvm.loop !11

38:                                               ; preds = %18, %59
  %39 = phi i64 [ %63, %59 ], [ 1, %18 ]
  %40 = phi i32 [ %61, %59 ], [ 0, %18 ]
  br label %47

41:                                               ; preds = %59
  %42 = load i32, i32* %1, align 4, !tbaa !5
  br label %43

43:                                               ; preds = %11, %41, %18
  %44 = phi i32 [ %60, %41 ], [ %20, %18 ], [ %10, %11 ]
  %45 = phi i32 [ %42, %41 ], [ %19, %18 ], [ %8, %11 ]
  %46 = icmp sgt i32 %45, 1
  br i1 %46, label %64, label %97

47:                                               ; preds = %38, %54
  %48 = phi i64 [ 0, %38 ], [ %56, %54 ]
  %49 = phi i32 [ %40, %38 ], [ %57, %54 ]
  %50 = zext i32 %49 to i64
  %51 = getelementptr inbounds [100 x [100 x i32]], [100 x [100 x i32]]* %3, i64 0, i64 %48, i64 %50
  %52 = load i32, i32* %51, align 4, !tbaa !5
  %53 = icmp eq i32 %52, 0
  br i1 %53, label %59, label %54

54:                                               ; preds = %47
  %55 = call i32 (i8*, ...) @printf(i8* nonnull dereferenceable(1) getelementptr inbounds ([4 x i8], [4 x i8]* @.str.2, i64 0, i64 0), i32 %52)
  %56 = add nuw nsw i64 %48, 1
  %57 = add nsw i32 %49, -1
  %58 = icmp eq i64 %56, %39
  br i1 %58, label %59, label %47, !llvm.loop !13

59:                                               ; preds = %47, %54
  %60 = load i32, i32* %2, align 4, !tbaa !5
  %61 = add nuw nsw i32 %40, 1
  %62 = icmp slt i32 %61, %60
  %63 = add nuw nsw i64 %39, 1
  br i1 %62, label %38, label %41, !llvm.loop !14

64:                                               ; preds = %43, %94
  %65 = phi i32 [ %91, %94 ], [ %45, %43 ]
  %66 = phi i32 [ %96, %94 ], [ %44, %43 ]
  %67 = phi i64 [ %95, %94 ], [ 1, %43 ]
  %68 = phi i32 [ %92, %94 ], [ 1, %43 ]
  %69 = icmp slt i32 %68, %65
  %70 = icmp sgt i32 %66, 0
  %71 = select i1 %69, i1 %70, i1 false
  br i1 %71, label %72, label %90

72:                                               ; preds = %64
  %73 = zext i32 %66 to i64
  br label %74

74:                                               ; preds = %72, %74
  %75 = phi i64 [ %67, %72 ], [ %83, %74 ]
  %76 = phi i64 [ %73, %72 ], [ %89, %74 ]
  %77 = phi i32 [ %66, %72 ], [ %78, %74 ]
  %78 = add nsw i32 %77, -1
  %79 = zext i32 %78 to i64
  %80 = getelementptr inbounds [100 x [100 x i32]], [100 x [100 x i32]]* %3, i64 0, i64 %75, i64 %79
  %81 = load i32, i32* %80, align 4, !tbaa !5
  %82 = call i32 (i8*, ...) @printf(i8* nonnull dereferenceable(1) getelementptr inbounds ([4 x i8], [4 x i8]* @.str.2, i64 0, i64 0), i32 %81)
  %83 = add nuw nsw i64 %75, 1
  %84 = load i32, i32* %1, align 4, !tbaa !5
  %85 = trunc i64 %83 to i32
  %86 = icmp sgt i32 %84, %85
  %87 = icmp sgt i64 %76, 1
  %88 = select i1 %86, i1 %87, i1 false
  %89 = add nsw i64 %76, -1
  br i1 %88, label %74, label %90, !llvm.loop !15

90:                                               ; preds = %74, %64
  %91 = phi i32 [ %65, %64 ], [ %84, %74 ]
  %92 = add nuw nsw i32 %68, 1
  %93 = icmp slt i32 %92, %91
  br i1 %93, label %94, label %97, !llvm.loop !16

94:                                               ; preds = %90
  %95 = add nuw nsw i64 %67, 1
  %96 = load i32, i32* %2, align 4, !tbaa !5
  br label %64

97:                                               ; preds = %90, %43
  call void @llvm.lifetime.end.p0i8(i64 40000, i8* nonnull %6) #4
  call void @llvm.lifetime.end.p0i8(i64 4, i8* nonnull %5) #4
  call void @llvm.lifetime.end.p0i8(i64 4, i8* nonnull %4) #4
  ret void
}

; Function Attrs: argmemonly mustprogress nofree nosync nounwind willreturn
declare void @llvm.lifetime.start.p0i8(i64 immarg, i8* nocapture) #1

; Function Attrs: argmemonly mustprogress nofree nounwind willreturn writeonly
declare void @llvm.memset.p0i8.i64(i8* nocapture writeonly, i8, i64, i1 immarg) #2

; Function Attrs: nofree nounwind
declare noundef i32 @__isoc99_scanf(i8* nocapture noundef readonly, ...) local_unnamed_addr #3

; Function Attrs: nofree nounwind
declare noundef i32 @printf(i8* nocapture noundef readonly, ...) local_unnamed_addr #3

; Function Attrs: argmemonly mustprogress nofree nosync nounwind willreturn
declare void @llvm.lifetime.end.p0i8(i64 immarg, i8* nocapture) #1


!llvm.module.flags = !{!0, !1, !2, !3}
!llvm.ident = !{!4}

!0 = !{i32 1, !"wchar_size", i32 4}
!1 = !{i32 7, !"PIC Level", i32 2}
!2 = !{i32 7, !"PIE Level", i32 2}
!3 = !{i32 7, !"uwtable", i32 1}
!4 = !{!"clang version 13.0.0"}
!5 = !{!6, !6, i64 0}
!6 = !{!"int", !7, i64 0}
!7 = !{!"omnipotent char", !8, i64 0}
!8 = !{!"Simple C/C++ TBAA"}
!9 = distinct !{!9, !10}
!10 = !{!"llvm.loop.mustprogress"}
!11 = distinct !{!11, !10, !12}
!12 = !{!"llvm.loop.unswitch.partial.disable"}
!13 = distinct !{!13, !10}
!14 = distinct !{!14, !10}
!15 = distinct !{!15, !10}
!16 = distinct !{!16, !10}
